target datalayout = "e-m:e-p270:32:32-p271:32:32-p272:64:64-i64:64-i128:128-f80:128-n8:16:32:64-S128"
target triple = "x86_64-pc-linux-gnu"

%"class.clang::ActionResult" = type { i64 }
%"class.clang::SourceLocation" = type { i32 }
%"class.clang::QualType" = type { %"class.llvm::PointerIntPair" }
%"class.llvm::PointerIntPair" = type { %"struct.llvm::detail::PunnedPointer" }
%"struct.llvm::detail::PunnedPointer" = type { [8 x i8] }
%"class.clang::SourceRange" = type { %"class.clang::SourceLocation", %"class.clang::SourceLocation" }
%"class.clang::Expr" = type { %"class.clang::ValueStmt", %"class.clang::QualType" }
%"class.clang::ValueStmt" = type { %"class.clang::Stmt" }
%"class.clang::Stmt" = type { %union.anon.663 }
%union.anon.663 = type { %"class.clang::Stmt::PseudoObjectExprBitfields" }
%"class.clang::Stmt::PseudoObjectExprBitfields" = type { i64 }
%"class.clang::Declarator" = type { ptr, %"class.clang::CXXScopeSpec", %"class.clang::UnqualifiedId", %"class.clang::SourceRange", i32, [4 x i8], %"class.clang::DecompositionDeclarator", %"class.llvm::SmallVector.634", i16, %"class.clang::ParsedAttributes", ptr, ptr, ptr, %"class.llvm::ArrayRef", ptr, %union.anon.644, %"class.clang::SourceLocation", %"class.clang::SourceLocation", ptr }
%"class.clang::CXXScopeSpec" = type { %"class.clang::SourceRange", %"class.clang::NestedNameSpecifierLocBuilder", %"class.llvm::ArrayRef" }
%"class.clang::NestedNameSpecifierLocBuilder" = type { ptr, ptr, i32, i32 }
%"class.clang::UnqualifiedId" = type { i32, %union.anon.632, %"class.clang::SourceLocation", %"class.clang::SourceLocation" }
%union.anon.632 = type { ptr, [8 x i8] }
%"class.clang::DecompositionDeclarator" = type <{ %"class.clang::SourceLocation", %"class.clang::SourceLocation", ptr, i32, [4 x i8] }>
%"class.llvm::SmallVector.634" = type { %"class.llvm::SmallVectorImpl.635", %"struct.llvm::SmallVectorStorage.638" }
%"class.llvm::SmallVectorImpl.635" = type { %"class.llvm::SmallVectorTemplateBase.636" }
%"class.llvm::SmallVectorTemplateBase.636" = type { %"class.llvm::SmallVectorTemplateCommon.637" }
%"class.llvm::SmallVectorTemplateCommon.637" = type { %"class.llvm::SmallVectorBase" }
%"class.llvm::SmallVectorBase" = type { ptr, i32, i32 }
%"struct.llvm::SmallVectorStorage.638" = type { [1408 x i8] }
%"class.clang::ParsedAttributes" = type { %"class.clang::ParsedAttributesView", %"class.clang::AttributePool" }
%"class.clang::ParsedAttributesView" = type { %"class.clang::SourceRange", %"class.llvm::SmallVector.639" }
%"class.llvm::SmallVector.639" = type { %"class.llvm::SmallVectorImpl.640", %"struct.llvm::SmallVectorStorage.643" }
%"class.llvm::SmallVectorImpl.640" = type { %"class.llvm::SmallVectorTemplateBase.641" }
%"class.llvm::SmallVectorTemplateBase.641" = type { %"class.llvm::SmallVectorTemplateCommon.642" }
%"class.llvm::SmallVectorTemplateCommon.642" = type { %"class.llvm::SmallVectorBase" }
%"struct.llvm::SmallVectorStorage.643" = type { [48 x i8] }
%"class.clang::AttributePool" = type { ptr, %"class.llvm::SmallVector.639" }
%"class.llvm::ArrayRef" = type { ptr, i64 }
%union.anon.644 = type { [16 x %"struct.clang::DecompositionDeclarator::Binding"] }
%"struct.clang::DecompositionDeclarator::Binding" = type { ptr, %"class.clang::SourceLocation", [4 x i8], %"class.std::optional.653" }
%"class.std::optional.653" = type { %"struct.std::_Optional_base.654" }
%"struct.std::_Optional_base.654" = type { %"struct.std::_Optional_payload.656" }
%"struct.std::_Optional_payload.656" = type { %"struct.std::_Optional_payload.base.660", [7 x i8] }
%"struct.std::_Optional_payload.base.660" = type { %"struct.std::_Optional_payload_base.base.659" }
%"struct.std::_Optional_payload_base.base.659" = type <{ %"union.std::_Optional_payload_base<clang::ParsedAttributes>::_Storage", i8 }>
%"union.std::_Optional_payload_base<clang::ParsedAttributes>::_Storage" = type { %"class.clang::ParsedAttributes" }

; Function Attrs: mustprogress nounwind uwtable
define linkonce_odr hidden void @_ZN5clang12ActionResultIPNS_4ExprELb1EEC2Eb(ptr noundef nonnull align 8 dereferenceable(8) %0, i1 noundef zeroext %1) unnamed_addr #0 comdat align 2 {
  %3 = alloca ptr, align 8
  %4 = alloca i8, align 1
  store ptr %0, ptr %3, align 8
  %5 = zext i1 %1 to i8
  store i8 %5, ptr %4, align 1
  %6 = load ptr, ptr %3, align 8
  %7 = getelementptr inbounds nuw %"class.clang::ActionResult", ptr %6, i32 0, i32 0
  %8 = load i8, ptr %4, align 1
  %9 = trunc i8 %8 to i1
  %10 = select i1 %9, i64 1, i64 0
  store i64 %10, ptr %7, align 8
  ret void
}

; Function Attrs: mustprogress nounwind uwtable
define linkonce_odr hidden noundef i32 @_ZNK5clang8DeclSpec15getTypeSpecTypeEv(ptr noundef nonnull align 8 dereferenceable(360) %0) #0 comdat align 2 {
  %2 = alloca ptr, align 8
  store ptr %0, ptr %2, align 8
  %3 = load ptr, ptr %2, align 8
  %4 = load i64, ptr %3, align 8
  %5 = lshr i64 %4, 12
  %6 = and i64 %5, 127
  %7 = trunc i64 %6 to i32
  ret i32 %7
}

; Function Attrs: mustprogress nounwind uwtable
define linkonce_odr hidden noundef ptr @_ZN4llvm21PointerLikeTypeTraitsIPN5clang4ExprEE18getFromVoidPointerEPv(ptr noundef %0) #0 comdat align 2 {
  %2 = alloca ptr, align 8
  store ptr %0, ptr %2, align 8
  %3 = load ptr, ptr %2, align 8
  ret ptr %3
}

; Function Attrs: mustprogress nounwind uwtable
define linkonce_odr hidden i64 @_ZN5clang9ExprErrorEv() #0 comdat {
  %1 = alloca %"class.clang::ActionResult", align 8
  call void @_ZN5clang12ActionResultIPNS_4ExprELb1EEC2Eb(ptr noundef nonnull align 8 dereferenceable(8) %1, i1 noundef zeroext true)
  %2 = getelementptr inbounds nuw %"class.clang::ActionResult", ptr %1, i32 0, i32 0
  %3 = load i64, ptr %2, align 8
  ret i64 %3
}

; Function Attrs: mustprogress nounwind uwtable
define linkonce_odr hidden noundef zeroext i1 @_ZNK5clang10Declarator13isInvalidTypeEv(ptr noundef nonnull align 8 dereferenceable(4456) %0) #0 comdat align 2 {
  %2 = alloca ptr, align 8
  store ptr %0, ptr %2, align 8
  %3 = load ptr, ptr %2, align 8
  %4 = getelementptr inbounds nuw %"class.clang::Declarator", ptr %3, i32 0, i32 8
  %5 = load i16, ptr %4, align 8
  %6 = and i16 %5, 1
  %7 = zext i16 %6 to i32
  %8 = icmp ne i32 %7, 0
  br i1 %8, label %14, label %9

9:                                                ; preds = %1
  %10 = getelementptr inbounds nuw %"class.clang::Declarator", ptr %3, i32 0, i32 0
  %11 = load ptr, ptr %10, align 8
  %12 = call noundef i32 @_ZNK5clang8DeclSpec15getTypeSpecTypeEv(ptr noundef nonnull align 8 dereferenceable(360) %11)
  %13 = icmp eq i32 %12, 69
  br label %14

14:                                               ; preds = %9, %1
  %15 = phi i1 [ true, %1 ], [ %13, %9 ]
  ret i1 %15
}

; Function Attrs: mustprogress nounwind uwtable
define linkonce_odr hidden i64 @_ZNK5clang4Expr7getTypeEv(ptr noundef nonnull align 8 dereferenceable(16) %0) #0 comdat align 2 {
  %2 = alloca %"class.clang::QualType", align 8
  %3 = alloca ptr, align 8
  store ptr %0, ptr %3, align 8
  %4 = load ptr, ptr %3, align 8
  %5 = getelementptr inbounds nuw %"class.clang::Expr", ptr %4, i32 0, i32 1
  call void @llvm.memcpy.p0.p0.i64(ptr align 8 %2, ptr align 8 %5, i64 8, i1 false)
  %6 = getelementptr inbounds nuw %"class.clang::QualType", ptr %2, i32 0, i32 0
  %7 = getelementptr inbounds nuw %"class.llvm::PointerIntPair", ptr %6, i32 0, i32 0
  %8 = getelementptr inbounds nuw %"struct.llvm::detail::PunnedPointer", ptr %7, i32 0, i32 0
  %9 = load i64, ptr %8, align 8
  ret i64 %9
}

; Function Attrs: mustprogress nounwind uwtable
define linkonce_odr hidden noundef ptr @_ZNK5clang12ActionResultIPNS_4ExprELb1EE3getEv(ptr noundef nonnull align 8 dereferenceable(8) %0) #0 comdat align 2 {
  %2 = alloca ptr, align 8
  %3 = alloca ptr, align 8
  store ptr %0, ptr %2, align 8
  %4 = load ptr, ptr %2, align 8
  %5 = getelementptr inbounds nuw %"class.clang::ActionResult", ptr %4, i32 0, i32 0
  %6 = load i64, ptr %5, align 8
  %7 = and i64 %6, -2
  %8 = inttoptr i64 %7 to ptr
  store ptr %8, ptr %3, align 8
  %9 = load ptr, ptr %3, align 8
  %10 = call noundef ptr @_ZN4llvm21PointerLikeTypeTraitsIPN5clang4ExprEE18getFromVoidPointerEPv(ptr noundef %9)
  ret ptr %10
}

; Function Attrs: mustprogress nounwind uwtable
define dso_local i64 @_ZN5clang4Sema23ActOnBuiltinBitCastExprENS_14SourceLocationERNS_10DeclaratorENS_12ActionResultIPNS_4ExprELb1EEES1_(ptr noundef nonnull align 8 dereferenceable(17560) %0, i32 %1, ptr noundef nonnull align 8 dereferenceable(4456) %2, i64 %3, i32 %4) #0 align 2 {
  %6 = alloca %"class.clang::ActionResult", align 8
  %7 = alloca %"class.clang::SourceLocation", align 4
  %8 = alloca %"class.clang::ActionResult", align 8
  %9 = alloca %"class.clang::SourceLocation", align 4
  %10 = alloca ptr, align 8
  %11 = alloca ptr, align 8
  %12 = alloca ptr, align 8
  %13 = alloca %"class.clang::QualType", align 8
  %14 = alloca %"class.clang::SourceLocation", align 4
  %15 = alloca %"class.clang::SourceLocation", align 4
  %16 = getelementptr inbounds nuw %"class.clang::SourceLocation", ptr %7, i32 0, i32 0
  store i32 %1, ptr %16, align 4
  %17 = getelementptr inbounds nuw %"class.clang::ActionResult", ptr %8, i32 0, i32 0
  store i64 %3, ptr %17, align 8
  %18 = getelementptr inbounds nuw %"class.clang::SourceLocation", ptr %9, i32 0, i32 0
  store i32 %4, ptr %18, align 4
  store ptr %0, ptr %10, align 8
  store ptr %2, ptr %11, align 8
  %19 = load ptr, ptr %10, align 8
  %20 = load ptr, ptr %11, align 8
  %21 = call noundef ptr @_ZNK5clang12ActionResultIPNS_4ExprELb1EE3getEv(ptr noundef nonnull align 8 dereferenceable(8) %8)
  %22 = call i64 @_ZNK5clang4Expr7getTypeEv(ptr noundef nonnull align 8 dereferenceable(16) %21)
  %23 = getelementptr inbounds nuw %"class.clang::QualType", ptr %13, i32 0, i32 0
  %24 = getelementptr inbounds nuw %"class.llvm::PointerIntPair", ptr %23, i32 0, i32 0
  %25 = getelementptr inbounds nuw %"struct.llvm::detail::PunnedPointer", ptr %24, i32 0, i32 0
  store i64 %22, ptr %25, align 8
  %26 = getelementptr inbounds nuw %"class.clang::QualType", ptr %13, i32 0, i32 0
  %27 = getelementptr inbounds nuw %"class.llvm::PointerIntPair", ptr %26, i32 0, i32 0
  %28 = getelementptr inbounds nuw %"struct.llvm::detail::PunnedPointer", ptr %27, i32 0, i32 0
  %29 = load i64, ptr %28, align 8
  %30 = call noundef ptr @_ZN5clang4Sema24GetTypeForDeclaratorCastERNS_10DeclaratorENS_8QualTypeE(ptr noundef nonnull align 8 dereferenceable(17560) %19, ptr noundef nonnull align 8 dereferenceable(4456) %20, i64 %29)
  store ptr %30, ptr %12, align 8
  %31 = load ptr, ptr %11, align 8
  %32 = call noundef zeroext i1 @_ZNK5clang10Declarator13isInvalidTypeEv(ptr noundef nonnull align 8 dereferenceable(4456) %31)
  br i1 %32, label %33, label %36

33:                                               ; preds = %5
  %34 = call i64 @_ZN5clang9ExprErrorEv()
  %35 = getelementptr inbounds nuw %"class.clang::ActionResult", ptr %6, i32 0, i32 0
  store i64 %34, ptr %35, align 8
  br label %45

36:                                               ; preds = %5
  call void @llvm.memcpy.p0.p0.i64(ptr align 4 %14, ptr align 4 %7, i64 4, i1 false)
  %37 = load ptr, ptr %12, align 8
  %38 = call noundef ptr @_ZNK5clang12ActionResultIPNS_4ExprELb1EE3getEv(ptr noundef nonnull align 8 dereferenceable(8) %8)
  call void @llvm.memcpy.p0.p0.i64(ptr align 4 %15, ptr align 4 %9, i64 4, i1 false)
  %39 = getelementptr inbounds nuw %"class.clang::SourceLocation", ptr %14, i32 0, i32 0
  %40 = load i32, ptr %39, align 4
  %41 = getelementptr inbounds nuw %"class.clang::SourceLocation", ptr %15, i32 0, i32 0
  %42 = load i32, ptr %41, align 4
  %43 = call i64 @_ZN5clang4Sema23BuildBuiltinBitCastExprENS_14SourceLocationEPNS_14TypeSourceInfoEPNS_4ExprES1_(ptr noundef nonnull align 8 dereferenceable(17560) %19, i32 %40, ptr noundef %37, ptr noundef %38, i32 %42)
  %44 = getelementptr inbounds nuw %"class.clang::ActionResult", ptr %6, i32 0, i32 0
  store i64 %43, ptr %44, align 8
  br label %45

45:                                               ; preds = %36, %33
  %46 = getelementptr inbounds nuw %"class.clang::ActionResult", ptr %6, i32 0, i32 0
  %47 = load i64, ptr %46, align 8
  ret i64 %47
}