; Function Attrs: mustprogress nounwind uwtable
define dso_local noundef i64 @_ZN5clang4Sema23ActOnBuiltinBitCastExprENS_14SourceLocationERNS_10DeclaratorENS_12ActionResultIPNS_4ExprELb1EEES1_(ptr noundef nonnull align 8 dereferenceable(17560) %0, i32 %1, ptr noundef nonnull align 8 dereferenceable(4456) %2, i64 %3, i32 %4) local_unnamed_addr #0 align 2 {
  %6 = and i64 %3, -2
  %7 = inttoptr i64 %6 to ptr
  %8 = getelementptr inbounds nuw i8, ptr %7, i64 8
  %.sroa.0.0.copyload.i = load i64, ptr %8, align 8
  %9 = tail call noundef ptr @_ZN5clang4Sema24GetTypeForDeclaratorCastERNS_10DeclaratorENS_8QualTypeE(ptr noundef nonnull align 8 dereferenceable(17560) %0, ptr noundef nonnull align 8 dereferenceable(4456) %2, i64 %.sroa.0.0.copyload.i) #15
  %10 = getelementptr inbounds nuw i8, ptr %2, i64 1552
  %11 = load i16, ptr %10, align 8
  %12 = and i16 %11, 1
  %.not.i = icmp eq i16 %12, 0
  br i1 %.not.i, label %_ZNK5clang10Declarator13isInvalidTypeEv.exit, label %_ZNK5clang10Declarator13isInvalidTypeEv.exit.thread

_ZNK5clang10Declarator13isInvalidTypeEv.exit:     ; preds = %5
  %13 = load ptr, ptr %2, align 8
  %14 = load i64, ptr %13, align 8
  %15 = and i64 %14, 520192
  %16 = icmp eq i64 %15, 282624
  br i1 %16, label %_ZNK5clang10Declarator13isInvalidTypeEv.exit.thread, label %17

17:                                               ; preds = %_ZNK5clang10Declarator13isInvalidTypeEv.exit
  %18 = tail call i64 @_ZN5clang4Sema23BuildBuiltinBitCastExprENS_14SourceLocationEPNS_14TypeSourceInfoEPNS_4ExprES1_(ptr noundef nonnull align 8 dereferenceable(17560) %0, i32 %1, ptr noundef %9, ptr noundef nonnull %7, i32 %4)
  br label %_ZNK5clang10Declarator13isInvalidTypeEv.exit.thread

_ZNK5clang10Declarator13isInvalidTypeEv.exit.thread: ; preds = %5, %_ZNK5clang10Declarator13isInvalidTypeEv.exit, %17
  %.sroa.08.0 = phi i64 [ %18, %17 ], [ 1, %_ZNK5clang10Declarator13isInvalidTypeEv.exit ], [ 1, %5 ]
  ret i64 %.sroa.08.0
}